Certificate:
    Data:
        Version: 3 (0x2)
        Serial Number:
            50:60:d0:37:76:82:9a:04:c9:86:66:77:ff:20:23:e2
        Signature Algorithm: sha256WithRSAEncryption
        Issuer: CN=CA JJR root
        Validity
            Not Before: Mar 17 15:31:11 2021 GMT
            Not After : Mar 15 15:31:11 2031 GMT
        Subject: CN=Bourdon
        Subject Public Key Info:
            Public Key Algorithm: rsaEncryption
                RSA Public-Key: (2048 bit)
                Modulus:
                    00:cd:b5:f8:f8:25:5a:0a:0a:58:b6:32:cc:a8:ec:
                    61:7f:a7:76:e0:84:a5:bd:90:03:3a:62:21:4e:8a:
                    58:5e:a6:69:ce:af:2e:74:6d:7e:30:8e:c7:91:a0:
                    05:9c:ae:93:b7:eb:20:0b:d3:70:dd:3c:07:0a:39:
                    49:85:4d:e8:d5:70:b4:cc:0b:e0:08:99:f4:9c:ca:
                    35:c5:83:c6:73:7c:6b:84:c3:4d:3d:6c:40:d0:37:
                    ad:dd:2a:c7:11:f5:d1:36:6c:f3:af:c5:f3:0a:5c:
                    fc:a3:8c:ad:5f:fb:9a:8b:36:8f:e6:30:65:1e:25:
                    63:89:e6:95:bd:54:f3:ef:56:3a:6b:04:66:63:44:
                    63:4e:39:24:28:63:62:af:c5:9d:10:ef:d7:0b:81:
                    ca:d4:4b:3e:3a:5e:59:0c:bf:30:05:e9:61:c9:92:
                    d6:1d:e6:13:2f:d1:ee:69:ed:3c:27:76:53:e3:55:
                    39:56:23:fb:d3:1c:07:ec:63:35:9a:7b:f3:a6:1f:
                    95:f8:7c:3d:d3:20:01:f5:72:a1:32:34:fd:0f:ce:
                    85:8d:6d:ab:63:0e:2b:63:08:7c:04:c3:9a:6e:ea:
                    0e:c2:36:bb:94:a6:d6:52:b2:01:43:14:7b:5b:0d:
                    09:69:f5:e7:e5:4d:6d:6e:5f:14:41:9d:a9:da:96:
                    a6:bf
                Exponent: 65537 (0x10001)
        X509v3 extensions:
            X509v3 Basic Constraints: 
                CA:FALSE
            X509v3 Subject Key Identifier: 
                D4:EE:51:DD:1B:CC:58:54:6D:CD:0B:E4:80:23:4C:CD:89:A4:12:2E
            X509v3 Authority Key Identifier: 
                keyid:97:99:CD:A8:1B:B5:B5:FB:2E:1C:57:57:FB:1B:F4:EE:1D:B8:4B:A4
                DirName:/CN=CA JJR root
                serial:72:68:07:97:AD:03:53:C6:A2:DE:C1:A0:90:64:41:C8:DD:D6:DA:11

            X509v3 Extended Key Usage: 
                TLS Web Client Authentication
            X509v3 Key Usage: 
                Digital Signature
    Signature Algorithm: sha256WithRSAEncryption
         46:57:04:8c:3b:3a:7a:b6:34:f9:c6:16:34:ab:86:fe:ae:61:
         b9:6c:82:b0:60:ef:ca:e1:66:4d:c0:4b:9c:16:4f:97:65:65:
         97:52:f4:93:90:d3:24:e7:fe:cd:5b:e6:6f:38:fa:d2:9f:bd:
         d6:e4:10:74:fe:62:cc:57:d3:6c:25:1e:cd:b8:a7:d9:0e:d5:
         29:ae:e8:ec:b3:75:55:46:69:62:08:f7:5c:8e:7b:58:b0:80:
         dd:c9:57:e3:ef:98:d8:7b:82:26:1b:da:c1:16:04:39:b9:e6:
         e9:06:6e:a6:4c:82:a2:b8:fe:19:09:ce:6d:e0:55:d0:5f:8c:
         20:00:0a:6d:62:55:98:9a:56:67:d4:be:a6:98:78:b7:50:dc:
         19:2f:bd:90:89:91:b7:c8:2c:ad:d6:6d:79:2f:c1:05:81:6d:
         db:fa:61:d8:98:30:c7:46:a3:5b:3b:60:7c:00:b3:2c:76:50:
         34:01:ec:30:98:1e:39:6d:b7:10:99:f5:ae:a1:62:27:df:1c:
         12:fc:5e:a5:08:7b:d8:11:fe:2e:9b:b0:eb:d2:9d:09:8e:ec:
         c8:2c:3f:7d:d7:1c:54:38:dc:f3:e5:e8:20:9a:7b:84:8e:fb:
         69:8b:be:0b:af:d7:4a:ab:0d:05:d6:0d:24:39:f9:e9:68:ff:
         a5:65:c0:88
-----BEGIN CERTIFICATE-----
MIIDVTCCAj2gAwIBAgIQUGDQN3aCmgTJhmZ3/yAj4jANBgkqhkiG9w0BAQsFADAW
MRQwEgYDVQQDDAtDQSBKSlIgcm9vdDAeFw0yMTAzMTcxNTMxMTFaFw0zMTAzMTUx
NTMxMTFaMBIxEDAOBgNVBAMMB0JvdXJkb24wggEiMA0GCSqGSIb3DQEBAQUAA4IB
DwAwggEKAoIBAQDNtfj4JVoKCli2Msyo7GF/p3bghKW9kAM6YiFOilhepmnOry50
bX4wjseRoAWcrpO36yAL03DdPAcKOUmFTejVcLTMC+AImfScyjXFg8ZzfGuEw009
bEDQN63dKscR9dE2bPOvxfMKXPyjjK1f+5qLNo/mMGUeJWOJ5pW9VPPvVjprBGZj
RGNOOSQoY2KvxZ0Q79cLgcrUSz46XlkMvzAF6WHJktYd5hMv0e5p7TwndlPjVTlW
I/vTHAfsYzWae/OmH5X4fD3TIAH1cqEyNP0PzoWNbatjDitjCHwEw5pu6g7CNruU
ptZSsgFDFHtbDQlp9eflTW1uXxRBnanalqa/AgMBAAGjgaIwgZ8wCQYDVR0TBAIw
ADAdBgNVHQ4EFgQU1O5R3RvMWFRtzQvkgCNMzYmkEi4wUQYDVR0jBEowSIAUl5nN
qBu1tfsuHFdX+xv07h24S6ShGqQYMBYxFDASBgNVBAMMC0NBIEpKUiByb290ghRy
aAeXrQNTxqLewaCQZEHI3dbaETATBgNVHSUEDDAKBggrBgEFBQcDAjALBgNVHQ8E
BAMCB4AwDQYJKoZIhvcNAQELBQADggEBAEZXBIw7Onq2NPnGFjSrhv6uYblsgrBg
78rhZk3AS5wWT5dlZZdS9JOQ0yTn/s1b5m84+tKfvdbkEHT+YsxX02wlHs24p9kO
1Smu6OyzdVVGaWII91yOe1iwgN3JV+PvmNh7giYb2sEWBDm55ukGbqZMgqK4/hkJ
zm3gVdBfjCAACm1iVZiaVmfUvqaYeLdQ3BkvvZCJkbfILK3WbXkvwQWBbdv6YdiY
MMdGo1s7YHwAsyx2UDQB7DCYHjlttxCZ9a6hYiffHBL8XqUIe9gR/i6bsOvSnQmO
7MgsP33XHFQ43PPl6CCae4SO+2mLvguv10qrDQXWDSQ5+elo/6VlwIg=
-----END CERTIFICATE-----
